(dp0
S'METTS MARK'
p1
(dp2
S'to_messages'
p3
I807
sS'deferral_payments'
p4
S'NaN'
p5
sS'expenses'
p6
I94299
sS'perc_poi_messages'
p7
F0.482
sS'poi'
p8
I00
sS'deferred_income'
p9
g5
sS'total'
p10
I1646889
sS'email_address'
p11
S'mark.metts@enron.com'
p12
sS'long_term_incentive'
p13
g5
sS'total_salary'
p14
F4.502
sS'restricted_stock_deferred'
p15
g5
sS'shared_receipt_with_poi'
p16
I702
sS'loan_advances'
p17
g5
sS'from_messages'
p18
I29
sS'other'
p19
I1740
sS'director_fees'
p20
g5
sS'incentive_salary'
p21
S'NaN'
p22
sS'bonus'
p23
I600000
sS'total_stock_value'
p24
I585062
sS'from_poi_to_this_person'
p25
I38
sS'bonus_salary'
p26
F1.64
sS'from_this_person_to_poi'
p27
I1
sS'restricted_stock'
p28
I585062
sS'salary'
p29
I365788
sS'perc_this_person_to_poi'
p30
F0.034
sS'total_payments'
p31
I1061827
sS'stock_payment'
p32
F0.551
sS'exercised_stock_options'
p33
g5
sS'perc_poi_to_this_person'
p34
F0.047
ssS'BAXTER JOHN C'
p35
(dp36
g3
g5
sg4
I1295738
sg6
I11200
sg7
g22
sg8
I00
sg9
I-1386055
sg10
I16257601
sg11
g5
sg13
I1586055
sg14
F60.867
sg15
g5
sg16
g5
sg17
g5
sg18
g5
sg19
I2660303
sg20
g5
sg21
F5.938
sg23
I1200000
sg24
I10623258
sg25
g5
sg26
F4.493
sg27
g5
sg28
I3942714
sg29
I267102
sg30
g22
sg31
I5634343
sg32
F1.885
sg33
I6680544
sg34
g22
ssS'ELLIOTT STEVEN'
p37
(dp38
g3
g5
sg4
g5
sg6
I78552
sg7
g22
sg8
I00
sg9
I-400729
sg10
I6890460
sg11
S'steven.elliott@enron.com'
p39
sg13
g5
sg14
F40.309
sg15
g5
sg16
g5
sg17
g5
sg18
g5
sg19
I12961
sg20
g5
sg21
g22
sg23
I350000
sg24
I6678735
sg25
g5
sg26
F2.047
sg27
g5
sg28
I1788391
sg29
I170941
sg30
g22
sg31
I211725
sg32
F31.544
sg33
I4890344
sg34
g22
ssS'CORDES WILLIAM R'
p40
(dp41
g3
I764
sg4
g5
sg6
g5
sg7
F0.082
sg8
I00
sg9
g5
sg10
g22
sg11
S'bill.cordes@enron.com'
p42
sg13
g5
sg14
g22
sg15
g5
sg16
I58
sg17
g5
sg18
I12
sg19
g5
sg20
g5
sg21
g22
sg23
g5
sg24
I1038185
sg25
I10
sg26
g22
sg27
I0
sg28
I386335
sg29
g5
sg30
F0.0
sg31
g5
sg32
g22
sg33
I651850
sg34
F0.013
ssS'HANNON KEVIN P'
p43
(dp44
g3
I1045
sg4
g5
sg6
I34039
sg7
F0.515
sg8
I01
sg9
I-3117011
sg10
I6679747
sg11
S'kevin.hannon@enron.com'
p45
sg13
I1617011
sg14
F27.456
sg15
g5
sg16
I1035
sg17
g5
sg18
I32
sg19
I11350
sg20
g5
sg21
F6.646
sg23
I1500000
sg24
I6391065
sg25
I32
sg26
F6.165
sg27
I21
sg28
I853064
sg29
I243293
sg30
F0.656
sg31
I288682
sg32
F22.139
sg33
I5538001
sg34
F0.031
ssS'MORDAUNT KRISTINA M'
p46
(dp47
g3
g5
sg4
g5
sg6
I35018
sg7
g22
sg8
I00
sg9
g5
sg10
I837032
sg11
S'kristina.mordaunt@enron.com'
p48
sg13
g5
sg14
F3.134
sg15
g5
sg16
g5
sg17
g5
sg18
g5
sg19
I1411
sg20
g5
sg21
g22
sg23
I325000
sg24
I208510
sg25
g5
sg26
F1.217
sg27
g5
sg28
I208510
sg29
I267093
sg30
g22
sg31
I628522
sg32
F0.332
sg33
g5
sg34
g22
ssS'MEYER ROCKFORD G'
p49
(dp50
g3
I232
sg4
I1848227
sg6
g5
sg7
F0.078
sg8
I00
sg9
g5
sg10
I2804100
sg11
S'rockford.meyer@enron.com'
p51
sg13
g5
sg14
g22
sg15
g5
sg16
I22
sg17
g5
sg18
I28
sg19
g5
sg20
g5
sg21
g22
sg23
g5
sg24
I955873
sg25
I0
sg26
g22
sg27
I0
sg28
I462384
sg29
g5
sg30
F0.0
sg31
I1848227
sg32
F0.517
sg33
I493489
sg34
F0.0
ssS'MCMAHON JEFFREY'
p52
(dp53
g3
I2355
sg4
g5
sg6
I137108
sg7
F0.499
sg8
I00
sg9
g5
sg10
I5762626
sg11
S'jeffrey.mcmahon@enron.com'
p54
sg13
I694862
sg14
F15.556
sg15
g5
sg16
I2228
sg17
g5
sg18
I48
sg19
I297353
sg20
g5
sg21
F1.876
sg23
I2600000
sg24
I1662855
sg25
I58
sg26
F7.019
sg27
I26
sg28
I558801
sg29
I370448
sg30
F0.542
sg31
I4099771
sg32
F0.406
sg33
I1104054
sg34
F0.025
ssS'HORTON STANLEY C'
p55
(dp56
g3
I2350
sg4
I3131860
sg6
g5
sg7
F0.252
sg8
I00
sg9
g5
sg10
I10388508
sg11
S'stanley.horton@enron.com'
p57
sg13
g5
sg14
g22
sg15
g5
sg16
I1074
sg17
g5
sg18
I1073
sg19
g5
sg20
g5
sg21
g22
sg23
g5
sg24
I7256648
sg25
I44
sg26
g22
sg27
I15
sg28
I2046079
sg29
g5
sg30
F0.014
sg31
I3131860
sg32
F2.317
sg33
I5210569
sg34
F0.019
ssS'PIPER GREGORY F'
p58
(dp59
g3
I1238
sg4
I1130036
sg6
I43057
sg7
F0.386
sg8
I00
sg9
I-33333
sg10
I2617919
sg11
S'greg.piper@enron.com'
p60
sg13
g5
sg14
F13.283
sg15
I-409554
sg16
I742
sg17
g5
sg18
I222
sg19
I778
sg20
g5
sg21
g22
sg23
I400000
sg24
I880290
sg25
I61
sg26
F2.03
sg27
I48
sg28
I409554
sg29
I197091
sg30
F0.216
sg31
I1737629
sg32
F0.507
sg33
I880290
sg34
F0.049
ssS'HUMPHREY GENE E'
p61
(dp62
g3
I128
sg4
I2964506
sg6
I4994
sg7
F0.553
sg8
I00
sg9
g5
sg10
I5382992
sg11
S'gene.humphrey@enron.com'
p63
sg13
g5
sg14
F41.178
sg15
g5
sg16
I119
sg17
g5
sg18
I17
sg19
g5
sg20
g5
sg21
g22
sg23
g5
sg24
I2282768
sg25
I10
sg26
g22
sg27
I17
sg28
g5
sg29
I130724
sg30
F1.0
sg31
I3100224
sg32
F0.736
sg33
I2282768
sg34
F0.078
ssS'UMANOFF ADAM S'
p64
(dp65
g3
I111
sg4
g5
sg6
I53122
sg7
F0.312
sg8
I00
sg9
g5
sg10
g22
sg11
S'adam.umanoff@enron.com'
p66
sg13
g5
sg14
g22
sg15
g5
sg16
I41
sg17
g5
sg18
I18
sg19
g5
sg20
g5
sg21
g22
sg23
I788750
sg24
g5
sg25
I12
sg26
F2.733
sg27
I0
sg28
g5
sg29
I288589
sg30
F0.0
sg31
I1130461
sg32
g22
sg33
g5
sg34
F0.108
ssS'BLACHMAN JEREMY M'
p67
(dp68
g3
I2475
sg4
g5
sg6
I84208
sg7
F0.489
sg8
I00
sg9
g5
sg10
I2969189
sg11
S'jeremy.blachman@enron.com'
p69
sg13
I831809
sg14
F11.946
sg15
g5
sg16
I2326
sg17
g5
sg18
I14
sg19
I272
sg20
g5
sg21
F3.347
sg23
I850000
sg24
I954354
sg25
I25
sg26
F3.42
sg27
I2
sg28
I189041
sg29
I248546
sg30
F0.143
sg31
I2014835
sg32
F0.474
sg33
I765313
sg34
F0.01
ssS'SUNDE MARTIN'
p70
(dp71
g3
I2647
sg4
g5
sg6
g5
sg7
F0.498
sg8
I00
sg9
g5
sg10
I2243979
sg11
S'marty.sunde@enron.com'
p72
sg13
I476451
sg14
F8.715
sg15
g5
sg16
I2565
sg17
g5
sg18
I38
sg19
I111122
sg20
g5
sg21
F1.85
sg23
I700000
sg24
I698920
sg25
I37
sg26
F2.719
sg27
I13
sg28
I698920
sg29
I257486
sg30
F0.342
sg31
I1545059
sg32
F0.452
sg33
g5
sg34
F0.014
ssS'GIBBS DANA R'
p73
(dp74
g3
I169
sg4
I504610
sg6
g5
sg7
F0.113
sg8
I00
sg9
g5
sg10
I3184797
sg11
S'dana.gibbs@enron.com'
p75
sg13
I461912
sg14
g22
sg15
g5
sg16
I23
sg17
g5
sg18
I12
sg19
g5
sg20
g5
sg21
g22
sg23
g5
sg24
I2218275
sg25
I0
sg26
g22
sg27
I0
sg28
g5
sg29
g5
sg30
F0.0
sg31
I966522
sg32
F2.295
sg33
I2218275
sg34
F0.0
ssS'LOWRY CHARLES P'
p76
(dp77
g3
g5
sg4
g5
sg6
g5
sg7
g22
sg8
I00
sg9
g5
sg10
g22
sg11
g5
sg13
g5
sg14
g22
sg15
I-153686
sg16
g5
sg17
g5
sg18
g5
sg19
g5
sg20
g5
sg21
g22
sg23
g5
sg24
I372205
sg25
g5
sg26
g22
sg27
g5
sg28
I153686
sg29
g5
sg30
g22
sg31
g5
sg32
g22
sg33
I372205
sg34
g22
ssS'COLWELL WESLEY'
p78
(dp79
g3
I1758
sg4
I27610
sg6
I16514
sg7
F0.472
sg8
I01
sg9
I-144062
sg10
I2188586
sg11
S'wes.colwell@enron.com'
p80
sg13
g5
sg14
F7.585
sg15
g5
sg16
I1132
sg17
g5
sg18
I40
sg19
I101740
sg20
g5
sg21
g22
sg23
I1200000
sg24
I698242
sg25
I240
sg26
F4.159
sg27
I11
sg28
I698242
sg29
I288542
sg30
F0.275
sg31
I1490344
sg32
F0.469
sg33
g5
sg34
F0.137
ssS'MULLER MARK S'
p81
(dp82
g3
I136
sg4
I842924
sg6
g5
sg7
F0.474
sg8
I00
sg9
I-719000
sg10
I4618918
sg11
S's..muller@enron.com'
p83
sg13
I1725545
sg14
F18.354
sg15
g5
sg16
I114
sg17
g5
sg18
I16
sg19
I947
sg20
g5
sg21
F6.857
sg23
I1100000
sg24
I1416848
sg25
I12
sg26
F4.371
sg27
I0
sg28
I360528
sg29
I251654
sg30
F0.0
sg31
I3202070
sg32
F0.442
sg33
I1056320
sg34
F0.088
ssS'JACKSON CHARLENE R'
p84
(dp85
g3
I258
sg4
g5
sg6
I10181
sg7
F0.374
sg8
I00
sg9
g5
sg10
I1276909
sg11
S'charlene.jackson@enron.com'
p86
sg13
g5
sg14
F4.425
sg15
g5
sg16
I117
sg17
g5
sg18
I56
sg19
I2435
sg20
g5
sg21
g22
sg23
I250000
sg24
I725735
sg25
I25
sg26
F0.866
sg27
I19
sg28
I540672
sg29
I288558
sg30
F0.339
sg31
I551174
sg32
F1.317
sg33
I185063
sg34
F0.097
ssS'WESTFAHL RICHARD K'
p87
(dp88
g3
g5
sg4
g5
sg6
I51870
sg7
g22
sg8
I00
sg9
I-10800
sg10
I1147065
sg11
S'dick.westfahl@enron.com'
p89
sg13
I256191
sg14
F17.995
sg15
g5
sg16
g5
sg17
g5
sg18
g5
sg19
I401130
sg20
g5
sg21
F4.019
sg23
g5
sg24
I384930
sg25
g5
sg26
g22
sg27
g5
sg28
I384930
sg29
I63744
sg30
g22
sg31
I762135
sg32
F0.505
sg33
g5
sg34
g22
ssS'WALTERS GARETH W'
p90
(dp91
g3
g5
sg4
I53625
sg6
I33785
sg7
g22
sg8
I00
sg9
g5
sg10
I1117739
sg11
g5
sg13
g5
sg14
g22
sg15
g5
sg16
g5
sg17
g5
sg18
g5
sg19
g5
sg20
g5
sg21
g22
sg23
g5
sg24
I1030329
sg25
g5
sg26
g22
sg27
g5
sg28
g5
sg29
g5
sg30
g22
sg31
I87410
sg32
F11.787
sg33
I1030329
sg34
g22
ssS'WALLS JR ROBERT H'
p92
(dp93
g3
I671
sg4
g5
sg6
I50936
sg7
F0.225
sg8
I00
sg9
g5
sg10
I7697777
sg11
S'rob.walls@enron.com'
p94
sg13
I540751
sg14
F21.557
sg15
g5
sg16
I215
sg17
g5
sg18
I146
sg19
I2
sg20
g5
sg21
F1.514
sg23
I850000
sg24
I5898997
sg25
I17
sg26
F2.38
sg27
I0
sg28
I1552453
sg29
I357091
sg30
F0.0
sg31
I1798780
sg32
F3.279
sg33
I4346544
sg34
F0.025
ssS'KITCHEN LOUISE'
p95
(dp96
g3
I8305
sg4
g5
sg6
I5774
sg7
F0.3
sg8
I00
sg9
g5
sg10
I4018284
sg11
S'louise.kitchen@enron.com'
p97
sg13
g5
sg14
F14.803
sg15
g5
sg16
I3669
sg17
g5
sg18
I1728
sg19
I93925
sg20
g5
sg21
g22
sg23
I3100000
sg24
I547143
sg25
I251
sg26
F11.42
sg27
I194
sg28
I466101
sg29
I271442
sg30
F0.112
sg31
I3471141
sg32
F0.158
sg33
I81042
sg34
F0.03
ssS'CHAN RONNIE'
p98
(dp99
g3
g5
sg4
g5
sg6
g5
sg7
g22
sg8
I00
sg9
I-98784
sg10
g22
sg11
g5
sg13
g5
sg14
g22
sg15
I-32460
sg16
g5
sg17
g5
sg18
g5
sg19
g5
sg20
I98784
sg21
g22
sg23
g5
sg24
g5
sg25
g5
sg26
g22
sg27
g5
sg28
I32460
sg29
g5
sg30
g22
sg31
g5
sg32
g22
sg33
g5
sg34
g22
ssS'SHANKMAN JEFFREY A'
p100
(dp101
g3
I3221
sg4
g5
sg6
I178979
sg7
F0.25
sg8
I00
sg9
g5
sg10
I5110737
sg11
S'jeffrey.shankman@enron.com'
p102
sg13
I554422
sg14
F16.806
sg15
g5
sg16
I1730
sg17
g5
sg18
I2681
sg19
I1191
sg20
g5
sg21
F1.823
sg23
I2000000
sg24
I2072035
sg25
I94
sg26
F6.577
sg27
I83
sg28
I630137
sg29
I304110
sg30
F0.031
sg31
I3038702
sg32
F0.682
sg33
I1441898
sg34
F0.029
ssS'WODRASKA JOHN'
p103
(dp104
g3
g5
sg4
g5
sg6
g5
sg7
g22
sg8
I00
sg9
g5
sg10
g22
sg11
S'john.wodraska@enron.com'
p105
sg13
g5
sg14
g22
sg15
g5
sg16
g5
sg17
g5
sg18
g5
sg19
I189583
sg20
g5
sg21
g22
sg23
g5
sg24
g5
sg25
g5
sg26
g22
sg27
g5
sg28
g5
sg29
g5
sg30
g22
sg31
I189583
sg32
g22
sg33
g5
sg34
g22
ssS'BERGSIEKER RICHARD P'
p106
(dp107
g3
I383
sg4
g5
sg6
I59175
sg7
F0.351
sg8
I00
sg9
I-485813
sg10
I1278099
sg11
S'rick.bergsieker@enron.com'
p108
sg13
I180250
sg14
F6.801
sg15
g5
sg16
I233
sg17
g5
sg18
I59
sg19
I427316
sg20
g5
sg21
F0.959
sg23
I250000
sg24
I659249
sg25
I4
sg26
F1.33
sg27
I0
sg28
I659249
sg29
I187922
sg30
F0.0
sg31
I618850
sg32
F1.065
sg33
g5
sg34
F0.01
ssS'URQUHART JOHN A'
p109
(dp110
g3
g5
sg4
g5
sg6
I228656
sg7
g22
sg8
I00
sg9
I-36666
sg10
g22
sg11
g5
sg13
g5
sg14
g22
sg15
g5
sg16
g5
sg17
g5
sg18
g5
sg19
g5
sg20
I36666
sg21
g22
sg23
g5
sg24
g5
sg25
g5
sg26
g22
sg27
g5
sg28
g5
sg29
g5
sg30
g22
sg31
I228656
sg32
g22
sg33
g5
sg34
g22
ssS'BIBI PHILIPPE A'
p111
(dp112
g3
I1607
sg4
g5
sg6
I38559
sg7
F0.458
sg8
I00
sg9
g5
sg10
I3891409
sg11
S'philippe.bibi@enron.com'
p113
sg13
I369721
sg14
F18.216
sg15
g5
sg16
I1336
sg17
g5
sg18
I40
sg19
I425688
sg20
g5
sg21
F1.731
sg23
I1000000
sg24
I1843816
sg25
I23
sg26
F4.681
sg27
I8
sg28
I378082
sg29
I213625
sg30
F0.2
sg31
I2047593
sg32
F0.9
sg33
I1465734
sg34
F0.014
ssS'RIEKER PAULA H'
p114
(dp115
g3
I1328
sg4
I214678
sg6
I33271
sg7
F0.503
sg8
I01
sg9
I-100000
sg10
I3017987
sg11
S'paula.rieker@enron.com'
p116
sg13
g5
sg14
F12.111
sg15
g5
sg16
I1258
sg17
g5
sg18
I82
sg19
I1950
sg20
g5
sg21
g22
sg23
I700000
sg24
I1918887
sg25
I35
sg26
F2.809
sg27
I48
sg28
I283649
sg29
I249201
sg30
F0.585
sg31
I1099100
sg32
F1.746
sg33
I1635238
sg34
F0.026
ssS'WHALEY DAVID A'
p117
(dp118
g3
g5
sg4
g5
sg6
g5
sg7
g22
sg8
I00
sg9
g5
sg10
g22
sg11
g5
sg13
g5
sg14
g22
sg15
g5
sg16
g5
sg17
g5
sg18
g5
sg19
g5
sg20
g5
sg21
g22
sg23
g5
sg24
I98718
sg25
g5
sg26
g22
sg27
g5
sg28
g5
sg29
g5
sg30
g22
sg31
g5
sg32
g22
sg33
I98718
sg34
g22
ssS'BECK SALLY W'
p119
(dp120
g3
I7315
sg4
g5
sg6
I37172
sg7
F0.222
sg8
I00
sg9
g5
sg10
I1095095
sg11
S'sally.beck@enron.com'
p121
sg13
g5
sg14
F4.734
sg15
g5
sg16
I2639
sg17
g5
sg18
I4343
sg19
I566
sg20
g5
sg21
g22
sg23
I700000
sg24
I126027
sg25
I144
sg26
F3.026
sg27
I386
sg28
I126027
sg29
I231330
sg30
F0.089
sg31
I969068
sg32
F0.13
sg33
g5
sg34
F0.02
ssS'ECHOLS JOHN B'
p122
(dp123
g3
g5
sg4
g5
sg6
I21530
sg7
g22
sg8
I00
sg9
g5
sg10
I3701265
sg11
S'john.echols@enron.com'
p124
sg13
I2234774
sg14
F20.309
sg15
g5
sg16
g5
sg17
g5
sg18
g5
sg19
I53775
sg20
g5
sg21
F12.262
sg23
I200000
sg24
I1008941
sg25
g5
sg26
F1.097
sg27
g5
sg28
I407503
sg29
I182245
sg30
g22
sg31
I2692324
sg32
F0.375
sg33
I601438
sg34
g22
ssS'MENDELSOHN JOHN'
p125
(dp126
g3
g5
sg4
g5
sg6
I148
sg7
g22
sg8
I00
sg9
I-103750
sg10
g22
sg11
g5
sg13
g5
sg14
g22
sg15
g5
sg16
g5
sg17
g5
sg18
g5
sg19
g5
sg20
I103750
sg21
g22
sg23
g5
sg24
g5
sg25
g5
sg26
g22
sg27
g5
sg28
g5
sg29
g5
sg30
g22
sg31
I148
sg32
g22
sg33
g5
sg34
g22
ssS'HICKERSON GARY J'
p127
(dp128
g3
I1320
sg4
g5
sg6
I98849
sg7
F0.419
sg8
I00
sg9
g5
sg10
I2522892
sg11
S'gary.hickerson@enron.com'
p129
sg13
I69223
sg14
F11.912
sg15
g5
sg16
I900
sg17
g5
sg18
I27
sg19
I1936
sg20
g5
sg21
F0.327
sg23
I1700000
sg24
I441096
sg25
I40
sg26
F8.027
sg27
I1
sg28
I441096
sg29
I211788
sg30
F0.037
sg31
I2081796
sg32
F0.212
sg33
g5
sg34
F0.03
ssS'CLINE KENNETH W'
p130
(dp131
g3
g5
sg4
g5
sg6
g5
sg7
g22
sg8
I00
sg9
g5
sg10
g22
sg11
g5
sg13
g5
sg14
g22
sg15
I-472568
sg16
g5
sg17
g5
sg18
g5
sg19
g5
sg20
g5
sg21
g22
sg23
g5
sg24
I189518
sg25
g5
sg26
g22
sg27
g5
sg28
I662086
sg29
g5
sg30
g22
sg31
g5
sg32
g22
sg33
g5
sg34
g22
ssS'LEWIS RICHARD'
p132
(dp133
g3
I952
sg4
g5
sg6
g5
sg7
F0.436
sg8
I00
sg9
g5
sg10
g22
sg11
S'richard.lewis@enron.com'
p134
sg13
g5
sg14
g22
sg15
g5
sg16
I739
sg17
g5
sg18
I26
sg19
g5
sg20
g5
sg21
g22
sg23
g5
sg24
I850477
sg25
I10
sg26
g22
sg27
I0
sg28
g5
sg29
g5
sg30
F0.0
sg31
g5
sg32
g22
sg33
I850477
sg34
F0.011
ssS'HAYES ROBERT E'
p135
(dp136
g3
I504
sg4
I7961
sg6
g5
sg7
F0.117
sg8
I00
sg9
g5
sg10
I159379
sg11
S'robert.hayes@enron.com'
p137
sg13
g5
sg14
g22
sg15
g5
sg16
I50
sg17
g5
sg18
I12
sg19
g5
sg20
g5
sg21
g22
sg23
g5
sg24
I151418
sg25
I16
sg26
g22
sg27
I0
sg28
I151418
sg29
g5
sg30
F0.0
sg31
I7961
sg32
F19.02
sg33
g5
sg34
F0.032
ssS'MCCARTY DANNY J'
p138
(dp139
g3
I1433
sg4
g5
sg6
g5
sg7
F0.248
sg8
I00
sg9
g5
sg10
g22
sg11
S'danny.mccarty@enron.com'
p140
sg13
g5
sg14
g22
sg15
g5
sg16
I508
sg17
g5
sg18
I215
sg19
g5
sg20
g5
sg21
g22
sg23
g5
sg24
I758931
sg25
I25
sg26
g22
sg27
I2
sg28
I94556
sg29
g5
sg30
F0.009
sg31
g5
sg32
g22
sg33
I664375
sg34
F0.017
ssS'KOPPER MICHAEL J'
p141
(dp142
g3
g5
sg4
g5
sg6
I118134
sg7
g22
sg8
I01
sg9
g5
sg10
I3637644
sg11
S'michael.kopper@enron.com'
p143
sg13
I602671
sg14
F16.217
sg15
g5
sg16
g5
sg17
g5
sg18
g5
sg19
I907502
sg20
g5
sg21
F2.687
sg23
I800000
sg24
I985032
sg25
g5
sg26
F3.567
sg27
g5
sg28
I985032
sg29
I224305
sg30
g22
sg31
I2652612
sg32
F0.371
sg33
g5
sg34
g22
ssS'LEFF DANIEL P'
p144
(dp145
g3
I2822
sg4
g5
sg6
g5
sg7
F0.495
sg8
I00
sg9
g5
sg10
I3024756
sg11
S'dan.leff@enron.com'
p146
sg13
I1387399
sg14
F11.049
sg15
g5
sg16
I2672
sg17
g5
sg18
I63
sg19
I3083
sg20
g5
sg21
F5.068
sg23
I1000000
sg24
I360528
sg25
I67
sg26
F3.653
sg27
I14
sg28
I360528
sg29
I273746
sg30
F0.222
sg31
I2664228
sg32
F0.135
sg33
g5
sg34
F0.024
ssS'LAVORATO JOHN J'
p147
(dp148
g3
I7259
sg4
g5
sg6
I49537
sg7
F0.355
sg8
I00
sg9
g5
sg10
I15592901
sg11
S'john.lavorato@enron.com'
p149
sg13
I2035380
sg14
F45.958
sg15
g5
sg16
I3962
sg17
g5
sg18
I2585
sg19
I1552
sg20
g5
sg21
F5.999
sg23
I8000000
sg24
I5167144
sg25
I528
sg26
F23.579
sg27
I411
sg28
I1008149
sg29
I339288
sg30
F0.159
sg31
I10425757
sg32
F0.496
sg33
I4158995
sg34
F0.073
ssS'BERBERIAN DAVID'
p150
(dp151
g3
g5
sg4
g5
sg6
I11892
sg7
g22
sg8
I00
sg9
g5
sg10
I2722090
sg11
S'david.berberian@enron.com'
p152
sg13
g5
sg14
F12.568
sg15
g5
sg16
g5
sg17
g5
sg18
g5
sg19
g5
sg20
g5
sg21
g22
sg23
g5
sg24
I2493616
sg25
g5
sg26
g22
sg27
g5
sg28
I869220
sg29
I216582
sg30
g22
sg31
I228474
sg32
F10.914
sg33
I1624396
sg34
g22
ssS'DETMERING TIMOTHY J'
p153
(dp154
g3
g5
sg4
I875307
sg6
I52255
sg7
g22
sg8
I00
sg9
I-775241
sg10
I3232448
sg11
S'timothy.detmering@enron.com'
p155
sg13
I415657
sg14
F15.356
sg15
I-315068
sg16
g5
sg17
g5
sg18
g5
sg19
I1105
sg20
g5
sg21
F1.975
sg23
I425000
sg24
I2027865
sg25
g5
sg26
F2.019
sg27
g5
sg28
I315068
sg29
I210500
sg30
g22
sg31
I1204583
sg32
F1.683
sg33
I2027865
sg34
g22
ssS'WAKEHAM JOHN'
p156
(dp157
g3
g5
sg4
g5
sg6
I103773
sg7
g22
sg8
I00
sg9
g5
sg10
g22
sg11
g5
sg13
g5
sg14
g22
sg15
g5
sg16
g5
sg17
g5
sg18
g5
sg19
g5
sg20
I109298
sg21
g22
sg23
g5
sg24
g5
sg25
g5
sg26
g22
sg27
g5
sg28
g5
sg29
g5
sg30
g22
sg31
I213071
sg32
g22
sg33
g5
sg34
g22
ssS'POWERS WILLIAM'
p158
(dp159
g3
I653
sg4
g5
sg6
g5
sg7
F0.017
sg8
I00
sg9
I-17500
sg10
g22
sg11
S'ken.powers@enron.com'
p160
sg13
g5
sg14
g22
sg15
g5
sg16
I12
sg17
g5
sg18
I26
sg19
g5
sg20
I17500
sg21
g22
sg23
g5
sg24
g5
sg25
I0
sg26
g22
sg27
I0
sg28
g5
sg29
g5
sg30
F0.0
sg31
g5
sg32
g22
sg33
g5
sg34
F0.0
ssS'GOLD JOSEPH'
p161
(dp162
g3
g5
sg4
g5
sg6
g5
sg7
g22
sg8
I00
sg9
g5
sg10
I3024584
sg11
S'joe.gold@enron.com'
p163
sg13
I304805
sg14
F11.084
sg15
g5
sg16
g5
sg17
g5
sg18
g5
sg19
I819288
sg20
g5
sg21
F1.117
sg23
I750000
sg24
I877611
sg25
g5
sg26
F2.748
sg27
g5
sg28
I441096
sg29
I272880
sg30
g22
sg31
I2146973
sg32
F0.409
sg33
I436515
sg34
g22
ssS'BANNANTINE JAMES M'
p164
(dp165
g3
I566
sg4
g5
sg6
I56301
sg7
F0.475
sg8
I00
sg9
I-5104
sg10
I6159684
sg11
S'james.bannantine@enron.com'
p166
sg13
g5
sg14
F12913.384
sg15
I-560222
sg16
I465
sg17
g5
sg18
I29
sg19
I864523
sg20
g5
sg21
g22
sg23
g5
sg24
I5243487
sg25
I39
sg26
g22
sg27
I0
sg28
I1757552
sg29
I477
sg30
F0.0
sg31
I916197
sg32
F5.723
sg33
I4046157
sg34
F0.069
ssS'DUNCAN JOHN H'
p167
(dp168
g3
g5
sg4
g5
sg6
g5
sg7
g22
sg8
I00
sg9
I-25000
sg10
I449242
sg11
g5
sg13
g5
sg14
g22
sg15
g5
sg16
g5
sg17
g5
sg18
g5
sg19
g5
sg20
I102492
sg21
g22
sg23
g5
sg24
I371750
sg25
g5
sg26
g22
sg27
g5
sg28
g5
sg29
g5
sg30
g22
sg31
I77492
sg32
F4.797
sg33
I371750
sg34
g22
ssS'SHAPIRO RICHARD S'
p169
(dp170
g3
I15149
sg4
g5
sg6
I137767
sg7
F0.223
sg8
I00
sg9
g5
sg10
I2044549
sg11
S'richard.shapiro@enron.com'
p171
sg13
g5
sg14
F7.598
sg15
g5
sg16
I4527
sg17
g5
sg18
I1215
sg19
I705
sg20
g5
sg21
g22
sg23
I650000
sg24
I987001
sg25
I74
sg26
F2.416
sg27
I65
sg28
I379164
sg29
I269076
sg30
F0.053
sg31
I1057548
sg32
F0.933
sg33
I607837
sg34
F0.005
ssS'SHERRIFF JOHN R'
p172
(dp173
g3
I3187
sg4
g5
sg6
g5
sg7
F0.4
sg8
I00
sg9
g5
sg10
I7464370
sg11
S'john.sherriff@enron.com'
p174
sg13
I554422
sg14
F17.408
sg15
g5
sg16
I2103
sg17
g5
sg18
I92
sg19
I1852186
sg20
g5
sg21
F1.293
sg23
I1500000
sg24
I3128982
sg25
I28
sg26
F3.498
sg27
I23
sg28
I1293424
sg29
I428780
sg30
F0.25
sg31
I4335388
sg32
F0.722
sg33
I1835558
sg34
F0.009
ssS'SHELBY REX'
p175
(dp176
g3
I225
sg4
g5
sg6
I22884
sg7
F0.332
sg8
I01
sg9
I-4167
sg10
I4497501
sg11
S'rex.shelby@enron.com'
p177
sg13
g5
sg14
F21.23
sg15
g5
sg16
I91
sg17
g5
sg18
I39
sg19
I1573324
sg20
g5
sg21
g22
sg23
I200000
sg24
I2493616
sg25
I13
sg26
F0.944
sg27
I14
sg28
I869220
sg29
I211844
sg30
F0.359
sg31
I2003885
sg32
F1.244
sg33
I1624396
sg34
F0.058
ssS'LEMAISTRE CHARLES'
p178
(dp179
g3
g5
sg4
g5
sg6
g5
sg7
g22
sg8
I00
sg9
I-25000
sg10
I500370
sg11
g5
sg13
g5
sg14
g22
sg15
g5
sg16
g5
sg17
g5
sg18
g5
sg19
g5
sg20
I112492
sg21
g22
sg23
g5
sg24
I412878
sg25
g5
sg26
g22
sg27
g5
sg28
g5
sg29
g5
sg30
g22
sg31
I87492
sg32
F4.719
sg33
I412878
sg34
g22
ssS'DEFFNER JOSEPH M'
p180
(dp181
g3
I714
sg4
g5
sg6
I41626
sg7
F0.501
sg8
I00
sg9
g5
sg10
I1367860
sg11
S'joseph.deffner@enron.com'
p182
sg13
I335349
sg14
F6.636
sg15
g5
sg16
I552
sg17
g5
sg18
I74
sg19
I25553
sg20
g5
sg21
F1.627
sg23
I600000
sg24
I159211
sg25
I115
sg26
F2.911
sg27
I4
sg28
I141833
sg29
I206121
sg30
F0.054
sg31
I1208649
sg32
F0.132
sg33
I17378
sg34
F0.161
ssS'KISHKILL JOSEPH G'
p183
(dp184
g3
g5
sg4
g5
sg6
I116335
sg7
g22
sg8
I00
sg9
I-51042
sg10
I1739242
sg11
S'joe.kishkill@enron.com'
p185
sg13
g5
sg14
F9.982
sg15
g5
sg16
g5
sg17
g5
sg18
g5
sg19
I465357
sg20
g5
sg21
g22
sg23
g5
sg24
I1034346
sg25
g5
sg26
g22
sg27
g5
sg28
I1034346
sg29
I174246
sg30
g22
sg31
I704896
sg32
F1.467
sg33
g5
sg34
g22
ssS'WHALLEY LAWRENCE G'
p186
(dp187
g3
I6019
sg4
g5
sg6
I57838
sg7
F0.394
sg8
I00
sg9
g5
sg10
I10756711
sg11
S'greg.whalley@enron.com'
p188
sg13
I808346
sg14
F21.077
sg15
g5
sg16
I3920
sg17
g5
sg18
I556
sg19
I301026
sg20
g5
sg21
F1.584
sg23
I3000000
sg24
I6079137
sg25
I186
sg26
F5.878
sg27
I24
sg28
I2796177
sg29
I510364
sg30
F0.043
sg31
I4677574
sg32
F1.3
sg33
I3282960
sg34
F0.031
ssS'MCCONNELL MICHAEL S'
p189
(dp190
g3
I3329
sg4
g5
sg6
I81364
sg7
F0.3
sg8
I00
sg9
g5
sg10
I5202643
sg11
S'mike.mcconnell@enron.com'
p191
sg13
I554422
sg14
F14.252
sg15
g5
sg16
I2189
sg17
g5
sg18
I2742
sg19
I540
sg20
g5
sg21
F1.519
sg23
I1100000
sg24
I3101279
sg25
I92
sg26
F3.013
sg27
I194
sg28
I1478269
sg29
I365038
sg30
F0.071
sg31
I2101364
sg32
F1.476
sg33
I1623010
sg34
F0.028
ssS'PIRO JIM'
p192
(dp193
g3
I58
sg4
g5
sg6
g5
sg7
F0.052
sg8
I00
sg9
g5
sg10
g22
sg11
S'jim.piro@enron.com'
p194
sg13
g5
sg14
g22
sg15
g5
sg16
I3
sg17
g5
sg18
I16
sg19
g5
sg20
g5
sg21
g22
sg23
g5
sg24
I47304
sg25
I0
sg26
g22
sg27
I1
sg28
I47304
sg29
g5
sg30
F0.063
sg31
g5
sg32
g22
sg33
g5
sg34
F0.0
ssS'DELAINEY DAVID W'
p195
(dp196
g3
I3093
sg4
g5
sg6
I86174
sg7
F0.336
sg8
I01
sg9
g5
sg10
I8362240
sg11
S'david.delainey@enron.com'
p197
sg13
I1294981
sg14
F22.9
sg15
g5
sg16
I2097
sg17
g5
sg18
I3069
sg19
I1661
sg20
g5
sg21
F3.546
sg23
I3000000
sg24
I3614261
sg25
I66
sg26
F8.216
sg27
I609
sg28
I1323148
sg29
I365163
sg30
F0.198
sg31
I4747979
sg32
F0.761
sg33
I2291113
sg34
F0.021
ssS'SULLIVAN-SHAKLOVITZ COLLEEN'
p198
(dp199
g3
g5
sg4
I181993
sg6
g5
sg7
g22
sg8
I00
sg9
g5
sg10
I2361731
sg11
g5
sg13
I554422
sg14
F14.509
sg15
g5
sg16
g5
sg17
g5
sg18
g5
sg19
I162
sg20
g5
sg21
F3.406
sg23
I100000
sg24
I1362375
sg25
g5
sg26
F0.614
sg27
g5
sg28
g5
sg29
I162779
sg30
g22
sg31
I999356
sg32
F1.363
sg33
I1362375
sg34
g22
ssS'WROBEL BRUCE'
p200
(dp201
g3
g5
sg4
g5
sg6
g5
sg7
g22
sg8
I00
sg9
g5
sg10
g22
sg11
g5
sg13
g5
sg14
g22
sg15
g5
sg16
g5
sg17
g5
sg18
g5
sg19
g5
sg20
g5
sg21
g22
sg23
g5
sg24
I139130
sg25
g5
sg26
g22
sg27
g5
sg28
g5
sg29
g5
sg30
g22
sg31
g5
sg32
g22
sg33
I139130
sg34
g22
ssS'LINDHOLM TOD A'
p202
(dp203
g3
g5
sg4
I204075
sg6
I57727
sg7
g22
sg8
I00
sg9
g5
sg10
I3940097
sg11
S'tod.lindholm@enron.com'
p204
sg13
I175000
sg14
F16.663
sg15
g5
sg16
g5
sg17
g5
sg18
g5
sg19
I2630
sg20
g5
sg21
F0.74
sg23
I200000
sg24
I3064208
sg25
g5
sg26
F0.846
sg27
g5
sg28
I514847
sg29
I236457
sg30
g22
sg31
I875889
sg32
F3.498
sg33
I2549361
sg34
g22
ssS'MEYER JEROME J'
p205
(dp206
g3
g5
sg4
g5
sg6
I2151
sg7
g22
sg8
I00
sg9
I-38346
sg10
g22
sg11
g5
sg13
g5
sg14
g22
sg15
g5
sg16
g5
sg17
g5
sg18
g5
sg19
g5
sg20
I38346
sg21
g22
sg23
g5
sg24
g5
sg25
g5
sg26
g22
sg27
g5
sg28
g5
sg29
g5
sg30
g22
sg31
I2151
sg32
g22
sg33
g5
sg34
g22
ssS'LAY KENNETH L'
p207
(dp208
g3
I4273
sg4
I202911
sg6
I99832
sg7
F0.379
sg8
I01
sg9
I-300000
sg10
I152669871
sg11
S'kenneth.lay@enron.com'
p209
sg13
I3600000
sg14
F142.373
sg15
g5
sg16
I2411
sg17
I81525000
sg18
I36
sg19
I10359729
sg20
g5
sg21
F3.357
sg23
I7000000
sg24
I49110078
sg25
I123
sg26
F6.528
sg27
I16
sg28
I14761694
sg29
I1072321
sg30
F0.444
sg31
I103559793
sg32
F0.474
sg33
I34348384
sg34
F0.029
ssS'BUTTS ROBERT H'
p210
(dp211
g3
g5
sg4
g5
sg6
I9410
sg7
g22
sg8
I00
sg9
I-75000
sg10
I1689201
sg11
S'bob.butts@enron.com'
p212
sg13
I175000
sg14
F6.459
sg15
g5
sg16
g5
sg17
g5
sg18
g5
sg19
I150656
sg20
g5
sg21
F0.669
sg23
I750000
sg24
I417619
sg25
g5
sg26
F2.868
sg27
g5
sg28
I417619
sg29
I261516
sg30
g22
sg31
I1271582
sg32
F0.328
sg33
g5
sg34
g22
ssS'OLSON CINDY K'
p213
(dp214
g3
I1184
sg4
I77716
sg6
I63791
sg7
F0.426
sg8
I00
sg9
g5
sg10
I3928320
sg11
S'cindy.olson@enron.com'
p215
sg13
I100000
sg14
F11.937
sg15
g5
sg16
I856
sg17
g5
sg18
I52
sg19
I972
sg20
g5
sg21
F0.304
sg23
I750000
sg24
I2606763
sg25
I20
sg26
F2.279
sg27
I15
sg28
I969729
sg29
I329078
sg30
F0.288
sg31
I1321557
sg32
F1.972
sg33
I1637034
sg34
F0.017
ssS'MCDONALD REBECCA'
p216
(dp217
g3
I894
sg4
g5
sg6
g5
sg7
F0.476
sg8
I00
sg9
g5
sg10
g22
sg11
S'rebecca.mcdonald@enron.com'
p218
sg13
g5
sg14
g22
sg15
g5
sg16
I720
sg17
g5
sg18
I13
sg19
g5
sg20
g5
sg21
g22
sg23
g5
sg24
I1691366
sg25
I54
sg26
g22
sg27
I1
sg28
I934065
sg29
g5
sg30
F0.077
sg31
g5
sg32
g22
sg33
I757301
sg34
F0.06
ssS'CUMBERLAND MICHAEL S'
p219
(dp220
g3
g5
sg4
g5
sg6
I22344
sg7
g22
sg8
I00
sg9
g5
sg10
I1015896
sg11
g5
sg13
I275000
sg14
F5.494
sg15
g5
sg16
g5
sg17
g5
sg18
g5
sg19
I713
sg20
g5
sg21
F1.487
sg23
I325000
sg24
I207940
sg25
g5
sg26
F1.758
sg27
g5
sg28
I207940
sg29
I184899
sg30
g22
sg31
I807956
sg32
F0.257
sg33
g5
sg34
g22
ssS'GAHN ROBERT S'
p221
(dp222
g3
g5
sg4
I73122
sg6
I50080
sg7
g22
sg8
I00
sg9
I-1042
sg10
I1219192
sg11
g5
sg13
g5
sg14
F6.35
sg15
g5
sg16
g5
sg17
g5
sg18
g5
sg19
I76547
sg20
g5
sg21
g22
sg23
I509870
sg24
I318607
sg25
g5
sg26
F2.655
sg27
g5
sg28
I235370
sg29
I192008
sg30
g22
sg31
I900585
sg32
F0.354
sg33
I83237
sg34
g22
ssS'MCCLELLAN GEORGE'
p223
(dp224
g3
I1744
sg4
g5
sg6
I228763
sg7
F0.466
sg8
I00
sg9
I-125000
sg10
I2266624
sg11
S'george.mcclellan@enron.com'
p225
sg13
g5
sg14
F8.605
sg15
g5
sg16
I1469
sg17
g5
sg18
I49
sg19
I51587
sg20
g5
sg21
g22
sg23
I900000
sg24
I947861
sg25
I52
sg26
F3.417
sg27
I0
sg28
I441096
sg29
I263413
sg30
F0.0
sg31
I1318763
sg32
F0.719
sg33
I506765
sg34
F0.03
ssS'HERMANN ROBERT J'
p226
(dp227
g3
g5
sg4
g5
sg6
I48357
sg7
g22
sg8
I00
sg9
I-280000
sg10
I1965593
sg11
S'robert.hermann@enron.com'
p228
sg13
I150000
sg14
F7.483
sg15
g5
sg16
g5
sg17
g5
sg18
g5
sg19
I416441
sg20
g5
sg21
F0.571
sg23
I700000
sg24
I668132
sg25
g5
sg26
F2.665
sg27
g5
sg28
I480632
sg29
I262663
sg30
g22
sg31
I1297461
sg32
F0.515
sg33
I187500
sg34
g22
ssS'SCRIMSHAW MATTHEW'
p229
(dp230
g3
g5
sg4
g5
sg6
g5
sg7
g22
sg8
I00
sg9
g5
sg10
g22
sg11
S'matthew.scrimshaw@enron.com'
p231
sg13
g5
sg14
g22
sg15
g5
sg16
g5
sg17
g5
sg18
g5
sg19
g5
sg20
g5
sg21
g22
sg23
g5
sg24
I759557
sg25
g5
sg26
g22
sg27
g5
sg28
g5
sg29
g5
sg30
g22
sg31
g5
sg32
g22
sg33
I759557
sg34
g22
ssS'GATHMANN WILLIAM D'
p232
(dp233
g3
g5
sg4
g5
sg6
g5
sg7
g22
sg8
I00
sg9
g5
sg10
g22
sg11
g5
sg13
g5
sg14
g22
sg15
I-72419
sg16
g5
sg17
g5
sg18
g5
sg19
g5
sg20
g5
sg21
g22
sg23
g5
sg24
I1945360
sg25
g5
sg26
g22
sg27
g5
sg28
I264013
sg29
g5
sg30
g22
sg31
g5
sg32
g22
sg33
I1753766
sg34
g22
ssS'HAEDICKE MARK E'
p234
(dp235
g3
I4009
sg4
I2157527
sg6
I76169
sg7
F0.268
sg8
I00
sg9
I-934484
sg10
I4662159
sg11
S'mark.haedicke@enron.com'
p236
sg13
I983346
sg14
F12.462
sg15
I-329825
sg16
I1847
sg17
g5
sg18
I1941
sg19
I52382
sg20
g5
sg21
F2.628
sg23
I1150000
sg24
I803094
sg25
I180
sg26
F3.074
sg27
I61
sg28
I524169
sg29
I374125
sg30
F0.031
sg31
I3859065
sg32
F0.208
sg33
I608750
sg34
F0.045
ssS'BOWEN JR RAYMOND M'
p237
(dp238
g3
I1858
sg4
g5
sg6
I65907
sg7
F0.503
sg8
I01
sg9
I-833
sg10
I2921644
sg11
S'raymond.bowen@enron.com'
p239
sg13
I974293
sg14
F10.487
sg15
g5
sg16
I1593
sg17
g5
sg18
I27
sg19
I1621
sg20
g5
sg21
F3.497
sg23
I1350000
sg24
I252055
sg25
I140
sg26
F4.846
sg27
I15
sg28
I252055
sg29
I278601
sg30
F0.556
sg31
I2669589
sg32
F0.094
sg33
g5
sg34
F0.075
ssS'GILLIS JOHN'
p240
(dp241
g3
g5
sg4
g5
sg6
g5
sg7
g22
sg8
I00
sg9
g5
sg10
g22
sg11
g5
sg13
g5
sg14
g22
sg15
g5
sg16
g5
sg17
g5
sg18
g5
sg19
g5
sg20
g5
sg21
g22
sg23
g5
sg24
I85641
sg25
g5
sg26
g22
sg27
g5
sg28
I75838
sg29
g5
sg30
g22
sg31
g5
sg32
g22
sg33
I9803
sg34
g22
ssS'FITZGERALD JAY L'
p242
(dp243
g3
I936
sg4
g5
sg6
I23870
sg7
F0.437
sg8
I00
sg9
g5
sg10
I3036093
sg11
S'jay.fitzgerald@enron.com'
p244
sg13
I556416
sg14
F15.245
sg15
g5
sg16
I723
sg17
g5
sg18
I16
sg19
I285414
sg20
g5
sg21
F2.794
sg23
I350000
sg24
I1621236
sg25
I1
sg26
F1.757
sg27
I8
sg28
I956775
sg29
I199157
sg30
F0.5
sg31
I1414857
sg32
F1.146
sg33
I664461
sg34
F0.001
ssS'MORAN MICHAEL P'
p245
(dp246
g3
I672
sg4
g5
sg6
g5
sg7
F0.155
sg8
I00
sg9
g5
sg10
g22
sg11
S'michael.moran@enron.com'
p247
sg13
g5
sg14
g22
sg15
g5
sg16
I127
sg17
g5
sg18
I19
sg19
g5
sg20
g5
sg21
g22
sg23
g5
sg24
I221141
sg25
I0
sg26
g22
sg27
I0
sg28
I161602
sg29
g5
sg30
F0.0
sg31
g5
sg32
g22
sg33
I59539
sg34
F0.0
ssS'REDMOND BRIAN L'
p248
(dp249
g3
I1671
sg4
g5
sg6
I14689
sg7
F0.445
sg8
I00
sg9
g5
sg10
I8001853
sg11
S'brian.redmond@enron.com'
p250
sg13
g5
sg14
F82.63
sg15
g5
sg16
I1063
sg17
g5
sg18
I221
sg19
g5
sg20
g5
sg21
g22
sg23
g5
sg24
I7890324
sg25
I204
sg26
g22
sg27
I49
sg28
I381285
sg29
I96840
sg30
F0.222
sg31
I111529
sg32
F70.747
sg33
I7509039
sg34
F0.122
ssS'BAZELIDES PHILIP J'
p251
(dp252
g3
g5
sg4
I684694
sg6
g5
sg7
g22
sg8
I00
sg9
g5
sg10
I2459777
sg11
g5
sg13
I93750
sg14
F30.436
sg15
g5
sg16
g5
sg17
g5
sg18
g5
sg19
I874
sg20
g5
sg21
F1.16
sg23
g5
sg24
I1599641
sg25
g5
sg26
g22
sg27
g5
sg28
g5
sg29
I80818
sg30
g22
sg31
I860136
sg32
F1.86
sg33
I1599641
sg34
g22
ssS'BELDEN TIMOTHY N'
p253
(dp254
g3
I7991
sg4
I2144013
sg6
I17355
sg7
F0.418
sg8
I01
sg9
I-2334434
sg10
I6612335
sg11
S'tim.belden@enron.com'
p255
sg13
g5
sg14
F30.899
sg15
g5
sg16
I5521
sg17
g5
sg18
I484
sg19
I210698
sg20
g5
sg21
g22
sg23
I5249999
sg24
I1110705
sg25
I228
sg26
F24.533
sg27
I108
sg28
I157569
sg29
I213999
sg30
F0.223
sg31
I5501630
sg32
F0.202
sg33
I953136
sg34
F0.029
ssS'DURAN WILLIAM D'
p256
(dp257
g3
I904
sg4
g5
sg6
I25785
sg7
F0.467
sg8
I00
sg9
g5
sg10
I3734173
sg11
S'w.duran@enron.com'
p258
sg13
I1105218
sg14
F17.723
sg15
g5
sg16
I599
sg17
g5
sg18
I12
sg19
I1568
sg20
g5
sg21
F5.246
sg23
I750000
sg24
I1640910
sg25
I106
sg26
F3.56
sg27
I3
sg28
I189041
sg29
I210692
sg30
F0.25
sg31
I2093263
sg32
F0.784
sg33
I1451869
sg34
F0.117
ssS'THORN TERENCE H'
p259
(dp260
g3
I266
sg4
I16586
sg6
I46145
sg7
F0.192
sg8
I00
sg9
g5
sg10
I5729249
sg11
S'terence.thorn@enron.com'
p261
sg13
I200000
sg14
F25.797
sg15
g5
sg16
I73
sg17
g5
sg18
I41
sg19
I426629
sg20
g5
sg21
F0.901
sg23
g5
sg24
I4817796
sg25
I0
sg26
g22
sg27
I0
sg28
I365320
sg29
I222093
sg30
F0.0
sg31
I911453
sg32
F5.286
sg33
I4452476
sg34
F0.0
ssS'FASTOW ANDREW S'
p262
(dp263
g3
g5
sg4
g5
sg6
I55921
sg7
g22
sg8
I01
sg9
I-1386055
sg10
I4218495
sg11
S'andrew.fastow@enron.com'
p264
sg13
I1736055
sg14
F9.572
sg15
g5
sg16
g5
sg17
g5
sg18
g5
sg19
I277464
sg20
g5
sg21
F3.939
sg23
I1300000
sg24
I1794412
sg25
g5
sg26
F2.95
sg27
g5
sg28
I1794412
sg29
I440698
sg30
g22
sg31
I2424083
sg32
F0.74
sg33
g5
sg34
g22
ssS'FOY JOE'
p265
(dp266
g3
I57
sg4
I181755
sg6
g5
sg7
F0.028
sg8
I00
sg9
g5
sg10
I525189
sg11
S'tracy.foy@enron.com'
p267
sg13
g5
sg14
g22
sg15
g5
sg16
I2
sg17
g5
sg18
I13
sg19
g5
sg20
g5
sg21
g22
sg23
g5
sg24
I343434
sg25
I0
sg26
g22
sg27
I0
sg28
g5
sg29
g5
sg30
F0.0
sg31
I181755
sg32
F1.89
sg33
I343434
sg34
F0.0
ssS'CALGER CHRISTOPHER F'
p268
(dp269
g3
I2598
sg4
g5
sg6
I35818
sg7
F0.489
sg8
I01
sg9
I-262500
sg10
I1765324
sg11
S'christopher.calger@enron.com'
p270
sg13
I375304
sg14
F7.35
sg15
g5
sg16
I2188
sg17
g5
sg18
I144
sg19
I486
sg20
g5
sg21
F1.563
sg23
I1250000
sg24
I126027
sg25
I199
sg26
F5.204
sg27
I25
sg28
I126027
sg29
I240189
sg30
F0.174
sg31
I1639297
sg32
F0.077
sg33
g5
sg34
F0.077
ssS'RICE KENNETH D'
p271
(dp272
g3
I905
sg4
g5
sg6
I46950
sg7
F0.509
sg8
I01
sg9
I-3504386
sg10
I23047589
sg11
S'ken.rice@enron.com'
p273
sg13
I1617011
sg14
F54.792
sg15
g5
sg16
I864
sg17
g5
sg18
I18
sg19
I174839
sg20
g5
sg21
F3.844
sg23
I1750000
sg24
I22542539
sg25
I42
sg26
F4.16
sg27
I4
sg28
I2748364
sg29
I420636
sg30
F0.222
sg31
I505050
sg32
F44.634
sg33
I19794175
sg34
F0.046
ssS'KAMINSKI WINCENTY J'
p274
(dp275
g3
I4607
sg4
g5
sg6
I83585
sg7
F0.041
sg8
I00
sg9
g5
sg10
I2062858
sg11
S'vince.kaminski@enron.com'
p276
sg13
I323466
sg14
F7.499
sg15
g5
sg16
I583
sg17
g5
sg18
I14368
sg19
I4669
sg20
g5
sg21
F1.176
sg23
I400000
sg24
I976037
sg25
I41
sg26
F1.454
sg27
I171
sg28
I126027
sg29
I275101
sg30
F0.012
sg31
I1086821
sg32
F0.898
sg33
I850010
sg34
F0.009
ssS'LOCKHART EUGENE E'
p277
(dp278
g3
g5
sg4
g5
sg6
g5
sg7
g22
sg8
I00
sg9
g5
sg10
g22
sg11
g5
sg13
g5
sg14
g22
sg15
g5
sg16
g5
sg17
g5
sg18
g5
sg19
g5
sg20
g5
sg21
g22
sg23
g5
sg24
g5
sg25
g5
sg26
g22
sg27
g5
sg28
g5
sg29
g5
sg30
g22
sg31
g5
sg32
g22
sg33
g5
sg34
g22
ssS'COX DAVID'
p279
(dp280
g3
I102
sg4
g5
sg6
I27861
sg7
F0.364
sg8
I00
sg9
I-41250
sg10
I1597026
sg11
S'chip.cox@enron.com'
p281
sg13
g5
sg14
F5.081
sg15
g5
sg16
I71
sg17
g5
sg18
I33
sg19
I494
sg20
g5
sg21
g22
sg23
I800000
sg24
I495633
sg25
I0
sg26
F2.545
sg27
I4
sg28
I378082
sg29
I314288
sg30
F0.121
sg31
I1101393
sg32
F0.45
sg33
I117551
sg34
F0.0
ssS'OVERDYKE JR JERE C'
p282
(dp283
g3
g5
sg4
g5
sg6
I18834
sg7
g22
sg8
I00
sg9
g5
sg10
I7557381
sg11
S'jere.overdyke@enron.com'
p284
sg13
I135836
sg14
F79.601
sg15
g5
sg16
g5
sg17
g5
sg18
g5
sg19
I176
sg20
g5
sg21
F1.431
sg23
g5
sg24
I7307594
sg25
g5
sg26
g22
sg27
g5
sg28
I2041016
sg29
I94941
sg30
g22
sg31
I249787
sg32
F29.255
sg33
I5266578
sg34
g22
ssS'PEREIRA PAULO V. FERRAZ'
p285
(dp286
g3
g5
sg4
g5
sg6
I27942
sg7
g22
sg8
I00
sg9
I-101250
sg10
g22
sg11
g5
sg13
g5
sg14
g22
sg15
g5
sg16
g5
sg17
g5
sg18
g5
sg19
g5
sg20
I101250
sg21
g22
sg23
g5
sg24
g5
sg25
g5
sg26
g22
sg27
g5
sg28
g5
sg29
g5
sg30
g22
sg31
I27942
sg32
g22
sg33
g5
sg34
g22
ssS'STABLER FRANK'
p287
(dp288
g3
g5
sg4
g5
sg6
I16514
sg7
g22
sg8
I00
sg9
g5
sg10
I1623821
sg11
S'frank.stabler@enron.com'
p289
sg13
g5
sg14
F6.78
sg15
g5
sg16
g5
sg17
g5
sg18
g5
sg19
I356071
sg20
g5
sg21
g22
sg23
I500000
sg24
I511734
sg25
g5
sg26
F2.088
sg27
g5
sg28
I511734
sg29
I239502
sg30
g22
sg31
I1112087
sg32
F0.46
sg33
g5
sg34
g22
ssS'SKILLING JEFFREY K'
p290
(dp291
g3
I3627
sg4
g5
sg6
I29336
sg7
F0.374
sg8
I01
sg9
g5
sg10
I34776388
sg11
S'jeff.skilling@enron.com'
p292
sg13
I1920000
sg14
F31.295
sg15
g5
sg16
I2042
sg17
g5
sg18
I108
sg19
I22122
sg20
g5
sg21
F1.728
sg23
I5600000
sg24
I26093672
sg25
I88
sg26
F5.039
sg27
I30
sg28
I6843672
sg29
I1111258
sg30
F0.278
sg31
I8682716
sg32
F3.005
sg33
I19250000
sg34
F0.024
ssS'BLAKE JR. NORMAN P'
p293
(dp294
g3
g5
sg4
g5
sg6
I1279
sg7
g22
sg8
I00
sg9
I-113784
sg10
g22
sg11
g5
sg13
g5
sg14
g22
sg15
g5
sg16
g5
sg17
g5
sg18
g5
sg19
g5
sg20
I113784
sg21
g22
sg23
g5
sg24
g5
sg25
g5
sg26
g22
sg27
g5
sg28
g5
sg29
g5
sg30
g22
sg31
I1279
sg32
g22
sg33
g5
sg34
g22
ssS'SHERRICK JEFFREY B'
p295
(dp296
g3
I613
sg4
g5
sg6
g5
sg7
F0.524
sg8
I00
sg9
g5
sg10
g22
sg11
S'jeffrey.sherrick@enron.com'
p297
sg13
g5
sg14
g22
sg15
g5
sg16
I583
sg17
g5
sg18
I25
sg19
g5
sg20
g5
sg21
g22
sg23
g5
sg24
I1832468
sg25
I39
sg26
g22
sg27
I18
sg28
I405999
sg29
g5
sg30
F0.72
sg31
g5
sg32
g22
sg33
I1426469
sg34
F0.064
ssS'PRENTICE JAMES'
p298
(dp299
g3
g5
sg4
I564348
sg6
g5
sg7
g22
sg8
I00
sg9
g5
sg10
I1659388
sg11
S'james.prentice@enron.com'
p300
sg13
g5
sg14
g22
sg15
g5
sg16
g5
sg17
g5
sg18
g5
sg19
g5
sg20
g5
sg21
g22
sg23
g5
sg24
I1095040
sg25
g5
sg26
g22
sg27
g5
sg28
I208809
sg29
g5
sg30
g22
sg31
I564348
sg32
F1.94
sg33
I886231
sg34
g22
ssS'GRAY RODNEY'
p301
(dp302
g3
g5
sg4
I93585
sg6
g5
sg7
g22
sg8
I00
sg9
g5
sg10
g22
sg11
g5
sg13
I365625
sg14
g22
sg15
g5
sg16
g5
sg17
g5
sg18
g5
sg19
I680833
sg20
g5
sg21
F55.272
sg23
g5
sg24
g5
sg25
g5
sg26
g22
sg27
g5
sg28
g5
sg29
I6615
sg30
g22
sg31
I1146658
sg32
g22
sg33
g5
sg34
g22
ssS'PICKERING MARK R'
p303
(dp304
g3
I898
sg4
g5
sg6
I31653
sg7
F0.434
sg8
I00
sg9
g5
sg10
I1415488
sg11
S'mark.pickering@enron.com'
p305
sg13
g5
sg14
F2.161
sg15
g5
sg16
I728
sg17
I400000
sg18
I67
sg19
g5
sg20
g5
sg21
g22
sg23
I300000
sg24
I28798
sg25
I7
sg26
F0.458
sg27
I0
sg28
g5
sg29
I655037
sg30
F0.0
sg31
I1386690
sg32
F0.021
sg33
I28798
sg34
F0.008
ssS'NOLES JAMES L'
p306
(dp307
g3
g5
sg4
I774401
sg6
g5
sg7
g22
sg8
I00
sg9
g5
sg10
I1143106
sg11
g5
sg13
g5
sg14
g22
sg15
I-94556
sg16
g5
sg17
g5
sg18
g5
sg19
g5
sg20
g5
sg21
g22
sg23
g5
sg24
I368705
sg25
g5
sg26
g22
sg27
g5
sg28
I463261
sg29
g5
sg30
g22
sg31
I774401
sg32
F0.476
sg33
g5
sg34
g22
ssS'KEAN STEVEN J'
p308
(dp309
g3
I12754
sg4
g5
sg6
I41953
sg7
F0.18
sg8
I00
sg9
g5
sg10
I7901164
sg11
S'steven.kean@enron.com'
p310
sg13
I300000
sg14
F19.541
sg15
g5
sg16
I3639
sg17
g5
sg18
I6759
sg19
I1231
sg20
g5
sg21
F0.742
sg23
I1000000
sg24
I6153642
sg25
I140
sg26
F2.473
sg27
I387
sg28
I4131594
sg29
I404338
sg30
F0.057
sg31
I1747522
sg32
F3.521
sg33
I2022048
sg34
F0.011
ssS'FOWLER PEGGY'
p311
(dp312
g3
I517
sg4
g5
sg6
g5
sg7
F0.018
sg8
I00
sg9
g5
sg10
g22
sg11
S'kulvinder.fowler@enron.com'
p313
sg13
g5
sg14
g22
sg15
g5
sg16
I10
sg17
g5
sg18
I36
sg19
g5
sg20
g5
sg21
g22
sg23
g5
sg24
I1884748
sg25
I0
sg26
g22
sg27
I0
sg28
I560170
sg29
g5
sg30
F0.0
sg31
g5
sg32
g22
sg33
I1324578
sg34
F0.0
ssS'WASAFF GEORGE'
p314
(dp315
g3
I400
sg4
I831299
sg6
g5
sg7
F0.477
sg8
I00
sg9
I-583325
sg10
I3090822
sg11
S'george.wasaff@enron.com'
p316
sg13
I200000
sg14
F11.888
sg15
g5
sg16
I337
sg17
g5
sg18
I30
sg19
I1425
sg20
g5
sg21
F0.769
sg23
I325000
sg24
I2056427
sg25
I22
sg26
F1.25
sg27
I7
sg28
I388167
sg29
I259996
sg30
F0.233
sg31
I1034395
sg32
F1.988
sg33
I1668260
sg34
F0.055
ssS'WHITE JR THOMAS E'
p317
(dp318
g3
g5
sg4
g5
sg6
I81353
sg7
g22
sg8
I00
sg9
g5
sg10
I17078482
sg11
S'thomas.white@enron.com'
p319
sg13
g5
sg14
F53.783
sg15
g5
sg16
g5
sg17
g5
sg18
g5
sg19
I1085463
sg20
g5
sg21
g22
sg23
I450000
sg24
I15144123
sg25
g5
sg26
F1.417
sg27
g5
sg28
I13847074
sg29
I317543
sg30
g22
sg31
I1934359
sg32
F7.829
sg33
I1297049
sg34
g22
ssS'CHRISTODOULOU DIOMEDES'
p320
(dp321
g3
g5
sg4
g5
sg6
g5
sg7
g22
sg8
I00
sg9
g5
sg10
g22
sg11
S'diomedes.christodoulou@enron.com'
p322
sg13
g5
sg14
g22
sg15
g5
sg16
g5
sg17
g5
sg18
g5
sg19
g5
sg20
g5
sg21
g22
sg23
g5
sg24
I6077885
sg25
g5
sg26
g22
sg27
g5
sg28
I950730
sg29
g5
sg30
g22
sg31
g5
sg32
g22
sg33
I5127155
sg34
g22
ssS'ALLEN PHILLIP K'
p323
(dp324
g3
I2902
sg4
I2869717
sg6
I13868
sg7
F0.234
sg8
I00
sg9
I-3081055
sg10
I6213983
sg11
S'phillip.allen@enron.com'
p325
sg13
I304805
sg14
F30.769
sg15
I-126027
sg16
I1407
sg17
g5
sg18
I2195
sg19
I152
sg20
g5
sg21
F1.509
sg23
I4175000
sg24
I1729541
sg25
I47
sg26
F20.673
sg27
I65
sg28
I126027
sg29
I201955
sg30
F0.03
sg31
I4484442
sg32
F0.386
sg33
I1729541
sg34
F0.016
ssS'SHARP VICTORIA T'
p326
(dp327
g3
I3136
sg4
I187469
sg6
I116337
sg7
F0.436
sg8
I00
sg9
g5
sg10
I2070647
sg11
S'vicki.sharp@enron.com'
p328
sg13
I422158
sg14
F8.344
sg15
g5
sg16
I2477
sg17
g5
sg18
I136
sg19
I2401
sg20
g5
sg21
F1.701
sg23
I600000
sg24
I494136
sg25
I24
sg26
F2.418
sg27
I6
sg28
I213063
sg29
I248146
sg30
F0.044
sg31
I1576511
sg32
F0.313
sg33
I281073
sg34
F0.008
ssS'JAEDICKE ROBERT'
p329
(dp330
g3
g5
sg4
g5
sg6
g5
sg7
g22
sg8
I00
sg9
I-25000
sg10
I515500
sg11
g5
sg13
g5
sg14
g22
sg15
I-44093
sg16
g5
sg17
g5
sg18
g5
sg19
g5
sg20
I108750
sg21
g22
sg23
g5
sg24
I431750
sg25
g5
sg26
g22
sg27
g5
sg28
I44093
sg29
g5
sg30
g22
sg31
I83750
sg32
F5.155
sg33
I431750
sg34
g22
ssS'WINOKUR JR. HERBERT S'
p331
(dp332
g3
g5
sg4
g5
sg6
I1413
sg7
g22
sg8
I00
sg9
I-25000
sg10
g22
sg11
g5
sg13
g5
sg14
g22
sg15
g5
sg16
g5
sg17
g5
sg18
g5
sg19
g5
sg20
I108579
sg21
g22
sg23
g5
sg24
g5
sg25
g5
sg26
g22
sg27
g5
sg28
g5
sg29
g5
sg30
g22
sg31
I84992
sg32
g22
sg33
g5
sg34
g22
ssS'BROWN MICHAEL'
p333
(dp334
g3
I1486
sg4
g5
sg6
I49288
sg7
F0.339
sg8
I00
sg9
g5
sg10
g22
sg11
S'michael.brown@enron.com'
p335
sg13
g5
sg14
g22
sg15
g5
sg16
I761
sg17
g5
sg18
I41
sg19
g5
sg20
g5
sg21
g22
sg23
g5
sg24
g5
sg25
I13
sg26
g22
sg27
I1
sg28
g5
sg29
g5
sg30
F0.024
sg31
I49288
sg32
g22
sg33
g5
sg34
F0.009
ssS'BADUM JAMES P'
p336
(dp337
g3
g5
sg4
I178980
sg6
I3486
sg7
g22
sg8
I00
sg9
g5
sg10
I440283
sg11
g5
sg13
g5
sg14
g22
sg15
g5
sg16
g5
sg17
g5
sg18
g5
sg19
g5
sg20
g5
sg21
g22
sg23
g5
sg24
I257817
sg25
g5
sg26
g22
sg27
g5
sg28
g5
sg29
g5
sg30
g22
sg31
I182466
sg32
F1.413
sg33
I257817
sg34
g22
ssS'HUGHES JAMES A'
p338
(dp339
g3
I719
sg4
g5
sg6
g5
sg7
F0.469
sg8
I00
sg9
g5
sg10
g22
sg11
S'james.hughes@enron.com'
p340
sg13
g5
sg14
g22
sg15
g5
sg16
I589
sg17
g5
sg18
I34
sg19
g5
sg20
g5
sg21
g22
sg23
g5
sg24
I1118394
sg25
I35
sg26
g22
sg27
I5
sg28
I363428
sg29
g5
sg30
F0.147
sg31
g5
sg32
g22
sg33
I754966
sg34
F0.049
ssS'REYNOLDS LAWRENCE'
p341
(dp342
g3
g5
sg4
I51365
sg6
I8409
sg7
g22
sg8
I00
sg9
I-200000
sg10
I4616366
sg11
g5
sg13
I156250
sg14
F60.424
sg15
I-140264
sg16
g5
sg17
g5
sg18
g5
sg19
I202052
sg20
g5
sg21
F2.045
sg23
I100000
sg24
I4221891
sg25
g5
sg26
F1.309
sg27
g5
sg28
I201483
sg29
I76399
sg30
g22
sg31
I394475
sg32
F10.703
sg33
I4160672
sg34
g22
ssS'DIMICHELE RICHARD G'
p343
(dp344
g3
g5
sg4
g5
sg6
I35812
sg7
g22
sg8
I00
sg9
g5
sg10
I10685933
sg11
S'richard.dimichele@enron.com'
p345
sg13
I694862
sg14
F40.664
sg15
g5
sg16
g5
sg17
g5
sg18
g5
sg19
I374689
sg20
g5
sg21
F2.644
sg23
I1000000
sg24
I8317782
sg25
g5
sg26
F3.805
sg27
g5
sg28
I126027
sg29
I262788
sg30
g22
sg31
I2368151
sg32
F3.512
sg33
I8191755
sg34
g22
ssS'CARTER REBECCA C'
p346
(dp347
g3
I312
sg4
g5
sg6
g5
sg7
F0.444
sg8
I00
sg9
I-159792
sg10
g22
sg11
S'rebecca.carter@enron.com'
p348
sg13
I75000
sg14
g22
sg15
I-307301
sg16
I196
sg17
g5
sg18
I15
sg19
I540
sg20
g5
sg21
F0.286
sg23
I300000
sg24
g5
sg25
I29
sg26
F1.146
sg27
I7
sg28
I307301
sg29
I261809
sg30
F0.467
sg31
I477557
sg32
g22
sg33
g5
sg34
F0.093
ssS'BUCHANAN HAROLD G'
p349
(dp350
g3
I1088
sg4
g5
sg6
I600
sg7
F0.019
sg8
I00
sg9
g5
sg10
I2069142
sg11
S'john.buchanan@enron.com'
p351
sg13
I304805
sg14
F8.343
sg15
g5
sg16
I23
sg17
g5
sg18
I125
sg19
I1215
sg20
g5
sg21
F1.229
sg23
I500000
sg24
I1014505
sg25
I0
sg26
F2.016
sg27
I0
sg28
I189041
sg29
I248017
sg30
F0.0
sg31
I1054637
sg32
F0.962
sg33
I825464
sg34
F0.0
ssS'YEAP SOON'
p352
(dp353
g3
g5
sg4
g5
sg6
I55097
sg7
g22
sg8
I00
sg9
g5
sg10
I247855
sg11
g5
sg13
g5
sg14
g22
sg15
g5
sg16
g5
sg17
g5
sg18
g5
sg19
g5
sg20
g5
sg21
g22
sg23
g5
sg24
I192758
sg25
g5
sg26
g22
sg27
g5
sg28
g5
sg29
g5
sg30
g22
sg31
I55097
sg32
F3.499
sg33
I192758
sg34
g22
ssS'MURRAY JULIA H'
p354
(dp355
g3
I2192
sg4
g5
sg6
I57580
sg7
F0.155
sg8
I00
sg9
g5
sg10
I1409655
sg11
S'julia.murray@enron.com'
p356
sg13
I125000
sg14
F6.148
sg15
g5
sg16
I395
sg17
g5
sg18
I45
sg19
I330
sg20
g5
sg21
F0.545
sg23
I400000
sg24
I597461
sg25
I11
sg26
F1.745
sg27
I2
sg28
I196983
sg29
I229284
sg30
F0.044
sg31
I812194
sg32
F0.736
sg33
I400478
sg34
F0.005
ssS'GARLAND C KEVIN'
p357
(dp358
g3
I209
sg4
g5
sg6
I48405
sg7
F0.499
sg8
I00
sg9
g5
sg10
I2462622
sg11
S'kevin.garland@enron.com'
p359
sg13
I375304
sg14
F10.617
sg15
g5
sg16
I178
sg17
g5
sg18
I44
sg19
I60814
sg20
g5
sg21
F1.618
sg23
I850000
sg24
I896153
sg25
I10
sg26
F3.665
sg27
I27
sg28
I259907
sg29
I231946
sg30
F0.614
sg31
I1566469
sg32
F0.572
sg33
I636246
sg34
F0.048
ssS'DODSON KEITH'
p360
(dp361
g3
I176
sg4
g5
sg6
I28164
sg7
F0.418
sg8
I00
sg9
g5
sg10
g22
sg11
S'keith.dodson@enron.com'
p362
sg13
g5
sg14
g22
sg15
g5
sg16
I114
sg17
g5
sg18
I14
sg19
I774
sg20
g5
sg21
g22
sg23
I70000
sg24
g5
sg25
I10
sg26
F0.317
sg27
I3
sg28
g5
sg29
I221003
sg30
F0.214
sg31
I319941
sg32
g22
sg33
g5
sg34
F0.057
ssS'YEAGER F SCOTT'
p363
(dp364
g3
g5
sg4
g5
sg6
I53947
sg7
g22
sg8
I01
sg9
g5
sg10
I12245058
sg11
S'scott.yeager@enron.com'
p365
sg13
g5
sg14
F77.303
sg15
g5
sg16
g5
sg17
g5
sg18
g5
sg19
I147950
sg20
g5
sg21
g22
sg23
g5
sg24
I11884758
sg25
g5
sg26
g22
sg27
g5
sg28
I3576206
sg29
I158403
sg30
g22
sg31
I360300
sg32
F32.986
sg33
I8308552
sg34
g22
ssS'HIRKO JOSEPH'
p366
(dp367
g3
g5
sg4
I10259
sg6
I77978
sg7
g22
sg8
I01
sg9
g5
sg10
I30857157
sg11
S'joe.hirko@enron.com'
p368
sg13
g5
sg14
g22
sg15
g5
sg16
g5
sg17
g5
sg18
g5
sg19
I2856
sg20
g5
sg21
g22
sg23
g5
sg24
I30766064
sg25
g5
sg26
g22
sg27
g5
sg28
g5
sg29
g5
sg30
g22
sg31
I91093
sg32
F337.743
sg33
I30766064
sg34
g22
ssS'DIETRICH JANET R'
p369
(dp370
g3
I2572
sg4
g5
sg6
I3475
sg7
F0.49
sg8
I00
sg9
g5
sg10
I3275551
sg11
S'janet.dietrich@enron.com'
p371
sg13
I556416
sg14
F13.097
sg15
g5
sg16
I1902
sg17
g5
sg18
I63
sg19
I473
sg20
g5
sg21
F2.225
sg23
I600000
sg24
I1865087
sg25
I305
sg26
F2.399
sg27
I14
sg28
I315068
sg29
I250100
sg30
F0.222
sg31
I1410464
sg32
F1.322
sg33
I1550019
sg34
F0.119
ssS'DERRICK JR. JAMES V'
p372
(dp373
g3
I2181
sg4
g5
sg6
I51124
sg7
F0.331
sg8
I00
sg9
I-1284000
sg10
I9382894
sg11
S'james.derrick@enron.com'
p374
sg13
I484000
sg14
F19.056
sg15
I-1787380
sg16
I1401
sg17
g5
sg18
I909
sg19
I7482
sg20
g5
sg21
F0.983
sg23
I800000
sg24
I8831913
sg25
I64
sg26
F1.625
sg27
I20
sg28
I1787380
sg29
I492375
sg30
F0.022
sg31
I550981
sg32
F16.029
sg33
I8831913
sg34
F0.029
ssS'FREVERT MARK A'
p375
(dp376
g3
I3275
sg4
I6426990
sg6
I86987
sg7
F0.514
sg8
I00
sg9
I-3367011
sg10
I31874715
sg11
S'mark.frevert@enron.com'
p377
sg13
I1617011
sg14
F30.044
sg15
g5
sg16
I2979
sg17
I2000000
sg18
I21
sg19
I7427621
sg20
g5
sg21
F1.524
sg23
I2000000
sg24
I14622185
sg25
I242
sg26
F1.885
sg27
I6
sg28
I4188667
sg29
I1060932
sg30
F0.286
sg31
I17252530
sg32
F0.848
sg33
I10433518
sg34
F0.074
ssS'PAI LOU L'
p378
(dp379
g3
g5
sg4
g5
sg6
I32047
sg7
g22
sg8
I00
sg9
g5
sg10
I26941313
sg11
S'lou.pai@enron.com'
p380
sg13
g5
sg14
F102.877
sg15
g5
sg16
g5
sg17
g5
sg18
g5
sg19
I1829457
sg20
g5
sg21
g22
sg23
I1000000
sg24
I23817930
sg25
g5
sg26
F3.819
sg27
g5
sg28
I8453763
sg29
I261879
sg30
g22
sg31
I3123383
sg32
F7.626
sg33
I15364167
sg34
g22
ssS'BAY FRANKLIN R'
p381
(dp382
g3
g5
sg4
I260455
sg6
I129142
sg7
g22
sg8
I00
sg9
I-201641
sg10
I890710
sg11
S'frank.bay@enron.com'
p383
sg13
g5
sg14
F3.716
sg15
I-82782
sg16
g5
sg17
g5
sg18
g5
sg19
I69
sg20
g5
sg21
g22
sg23
I400000
sg24
I63014
sg25
g5
sg26
F1.669
sg27
g5
sg28
I145796
sg29
I239671
sg30
g22
sg31
I827696
sg32
F0.076
sg33
g5
sg34
g22
ssS'HAYSLETT RODERICK J'
p384
(dp385
g3
I2649
sg4
g5
sg6
g5
sg7
F0.15
sg8
I00
sg9
g5
sg10
g22
sg11
S'rod.hayslett@enron.com'
p386
sg13
g5
sg14
g22
sg15
g5
sg16
I571
sg17
g5
sg18
I1061
sg19
g5
sg20
g5
sg21
g22
sg23
g5
sg24
I346663
sg25
I35
sg26
g22
sg27
I38
sg28
I346663
sg29
g5
sg30
F0.036
sg31
g5
sg32
g22
sg33
g5
sg34
F0.013
ssS'FUGH JOHN L'
p387
(dp388
g3
g5
sg4
I50591
sg6
g5
sg7
g22
sg8
I00
sg9
g5
sg10
I226969
sg11
g5
sg13
g5
sg14
g22
sg15
g5
sg16
g5
sg17
g5
sg18
g5
sg19
g5
sg20
g5
sg21
g22
sg23
g5
sg24
I176378
sg25
g5
sg26
g22
sg27
g5
sg28
g5
sg29
g5
sg30
g22
sg31
I50591
sg32
F3.486
sg33
I176378
sg34
g22
ssS'FALLON JAMES B'
p389
(dp390
g3
I1755
sg4
g5
sg6
I95924
sg7
F0.49
sg8
I00
sg9
g5
sg10
I6008739
sg11
S'jim.fallon@enron.com'
p391
sg13
I374347
sg14
F19.727
sg15
g5
sg16
I1604
sg17
g5
sg18
I75
sg19
I401481
sg20
g5
sg21
F1.229
sg23
I2500000
sg24
I2332399
sg25
I42
sg26
F8.208
sg27
I37
sg28
I1392142
sg29
I304588
sg30
F0.493
sg31
I3676340
sg32
F0.634
sg33
I940257
sg34
F0.024
ssS'KOENIG MARK E'
p392
(dp393
g3
I2374
sg4
g5
sg6
I127017
sg7
F0.497
sg8
I01
sg9
g5
sg10
I3507476
sg11
S'mark.koenig@enron.com'
p394
sg13
I300000
sg14
F11.316
sg15
g5
sg16
I2271
sg17
g5
sg18
I61
sg19
I150458
sg20
g5
sg21
F0.968
sg23
I700000
sg24
I1920055
sg25
I53
sg26
F2.258
sg27
I15
sg28
I1248318
sg29
I309946
sg30
F0.246
sg31
I1587421
sg32
F1.21
sg33
I671737
sg34
F0.022
ssS'SAVAGE FRANK'
p395
(dp396
g3
g5
sg4
g5
sg6
g5
sg7
g22
sg8
I00
sg9
I-121284
sg10
g22
sg11
g5
sg13
g5
sg14
g22
sg15
g5
sg16
g5
sg17
g5
sg18
g5
sg19
g5
sg20
I125034
sg21
g22
sg23
g5
sg24
g5
sg25
g5
sg26
g22
sg27
g5
sg28
g5
sg29
g5
sg30
g22
sg31
I3750
sg32
g22
sg33
g5
sg34
g22
ssS'IZZO LAWRENCE L'
p397
(dp398
g3
I496
sg4
g5
sg6
I28093
sg7
F0.494
sg8
I00
sg9
g5
sg10
I7799576
sg11
S'larry.izzo@enron.com'
p399
sg13
I312500
sg14
F91.465
sg15
g5
sg16
I437
sg17
g5
sg18
I19
sg19
I1553729
sg20
g5
sg21
F3.665
sg23
g5
sg24
I5819980
sg25
I28
sg26
g22
sg27
I5
sg28
I3654808
sg29
I85274
sg30
F0.263
sg31
I1979596
sg32
F2.94
sg33
I2165172
sg34
F0.056
ssS'TILNEY ELIZABETH A'
p400
(dp401
g3
I460
sg4
g5
sg6
g5
sg7
F0.466
sg8
I00
sg9
I-575000
sg10
I1567435
sg11
S'elizabeth.tilney@enron.com'
p402
sg13
I275000
sg14
F6.337
sg15
g5
sg16
I379
sg17
g5
sg18
I19
sg19
I152055
sg20
g5
sg21
F1.112
sg23
I300000
sg24
I1168042
sg25
I10
sg26
F1.213
sg27
I11
sg28
I576792
sg29
I247338
sg30
F0.579
sg31
I399393
sg32
F2.925
sg33
I591250
sg34
F0.022
ssS'MARTIN AMANDA K'
p403
(dp404
g3
I1522
sg4
I85430
sg6
I8211
sg7
F0.218
sg8
I00
sg9
g5
sg10
I10477322
sg11
S'a..martin@enron.com'
p405
sg13
I5145434
sg14
F29.979
sg15
g5
sg16
I477
sg17
g5
sg18
I230
sg19
I2818454
sg20
g5
sg21
F14.723
sg23
g5
sg24
I2070306
sg25
I8
sg26
g22
sg27
I0
sg28
g5
sg29
I349487
sg30
F0.0
sg31
I8407016
sg32
F0.246
sg33
I2070306
sg34
F0.005
ssS'BUY RICHARD B'
p406
(dp407
g3
I3523
sg4
I649584
sg6
g5
sg7
F0.371
sg8
I00
sg9
I-694862
sg10
I5800172
sg11
S'rick.buy@enron.com'
p408
sg13
I769862
sg14
F17.547
sg15
g5
sg16
I2333
sg17
g5
sg18
I1053
sg19
I400572
sg20
g5
sg21
F2.329
sg23
I900000
sg24
I3444470
sg25
I156
sg26
F2.723
sg27
I71
sg28
I901657
sg29
I330546
sg30
F0.067
sg31
I2355702
sg32
F1.462
sg33
I2542813
sg34
F0.044
ssS'GRAMM WENDY L'
p409
(dp410
g3
g5
sg4
g5
sg6
g5
sg7
g22
sg8
I00
sg9
g5
sg10
g22
sg11
g5
sg13
g5
sg14
g22
sg15
g5
sg16
g5
sg17
g5
sg18
g5
sg19
g5
sg20
I119292
sg21
g22
sg23
g5
sg24
g5
sg25
g5
sg26
g22
sg27
g5
sg28
g5
sg29
g5
sg30
g22
sg31
I119292
sg32
g22
sg33
g5
sg34
g22
ssS'CAUSEY RICHARD A'
p411
(dp412
g3
I1892
sg4
g5
sg6
I30674
sg7
F0.469
sg8
I01
sg9
I-235000
sg10
I4370821
sg11
S'richard.causey@enron.com'
p413
sg13
I350000
sg14
F10.527
sg15
g5
sg16
I1585
sg17
g5
sg18
I49
sg19
I307895
sg20
g5
sg21
F0.843
sg23
I1000000
sg24
I2502063
sg25
I58
sg26
F2.409
sg27
I12
sg28
I2502063
sg29
I415189
sg30
F0.245
sg31
I1868758
sg32
F1.339
sg33
g5
sg34
F0.031
ssS'TAYLOR MITCHELL S'
p414
(dp415
g3
I533
sg4
I227449
sg6
g5
sg7
F0.348
sg8
I00
sg9
g5
sg10
I4837711
sg11
S'mitchell.taylor@enron.com'
p416
sg13
g5
sg14
F18.241
sg15
g5
sg16
I300
sg17
g5
sg18
I29
sg19
g5
sg20
g5
sg21
g22
sg23
I600000
sg24
I3745048
sg25
I0
sg26
F2.262
sg27
I0
sg28
I563798
sg29
I265214
sg30
F0.0
sg31
I1092663
sg32
F3.427
sg33
I3181250
sg34
F0.0
ssS'DONAHUE JR JEFFREY M'
p417
(dp418
g3
I865
sg4
g5
sg6
I96268
sg7
F0.585
sg8
I00
sg9
I-300000
sg10
I1956748
sg11
S'jeff.donahue@enron.com'
p419
sg13
g5
sg14
F7.023
sg15
g5
sg16
I772
sg17
g5
sg18
I22
sg19
I891
sg20
g5
sg21
g22
sg23
I800000
sg24
I1080988
sg25
I188
sg26
F2.871
sg27
I11
sg28
I315068
sg29
I278601
sg30
F0.5
sg31
I875760
sg32
F1.234
sg33
I765920
sg34
F0.217
ssS'GLISAN JR BEN F'
p420
(dp421
g3
I873
sg4
g5
sg6
I125978
sg7
F0.529
sg8
I01
sg9
g5
sg10
I2050830
sg11
S'ben.glisan@enron.com'
p422
sg13
I71023
sg14
F7.458
sg15
g5
sg16
I874
sg17
g5
sg18
I16
sg19
I200308
sg20
g5
sg21
F0.258
sg23
I600000
sg24
I778546
sg25
I52
sg26
F2.182
sg27
I6
sg28
I393818
sg29
I274975
sg30
F0.375
sg31
I1272284
sg32
F0.612
sg33
I384728
sg34
F0.06
ss.