(lp0
S'poi'
p1
aS'exercised_stock_options'
p2
aS'total_stock_value'
p3
aS'bonus'
p4
aS'salary'
p5
aS'deferred_income'
p6
aS'long_term_incentive'
p7
aS'restricted_stock'
p8
aS'total_payments'
p9
aS'shared_receipt_with_poi'
p10
aS'loan_advances'
p11
aS'expenses'
p12
aS'other'
p13
aS'director_fees'
p14
aS'deferral_payments'
p15
aS'restricted_stock_deferred'
p16
aS'perc_poi_messages'
p17
aS'perc_this_person_to_poi'
p18
aS'perc_poi_to_this_person'
p19
aS'bonus_salary'
p20
aS'incentive_salary'
p21
aS'stock_payment'
p22
aS'total'
p23
aS'total_salary'
p24
a.